target datalayout = "e-m:e-p270:32:32-p271:32:32-p272:64:64-i64:64-i128:128-f80:128-n8:16:32:64-S128"
target triple = "x86_64-unknown-linux-gnu"

%"class.icu_75::StandardPluralRanges" = type { %"class.icu_75::MaybeStackArray.0", i32, [4 x i8] }
%"class.icu_75::MaybeStackArray.0" = type <{ ptr, i32, i8, [3 x i8], [3 x %"struct.icu_75::StandardPluralRanges::StandardPluralRangeTriple"], [4 x i8] }>
%"struct.icu_75::StandardPluralRanges::StandardPluralRangeTriple" = type { i32, i32, i32 }

; Function Attrs: mustprogress nounwind uwtable
define linkonce_odr noundef nonnull align 4 dereferenceable(12) ptr @_ZNK6icu_7515MaybeStackArrayINS_20StandardPluralRanges25StandardPluralRangeTripleELi3EEixEl(ptr noundef nonnull align 8 dereferenceable(52) %this, i64 noundef %i) #0 comdat align 2 {
entry:
  %this.addr = alloca ptr, align 8
  %i.addr = alloca i64, align 8
  store ptr %this, ptr %this.addr, align 8
  store i64 %i, ptr %i.addr, align 8
  %this1 = load ptr, ptr %this.addr, align 8
  %ptr = getelementptr inbounds %"class.icu_75::MaybeStackArray.0", ptr %this1, i32 0, i32 0
  %0 = load ptr, ptr %ptr, align 8
  %1 = load i64, ptr %i.addr, align 8
  %arrayidx = getelementptr inbounds %"struct.icu_75::StandardPluralRanges::StandardPluralRangeTriple", ptr %0, i64 %1
  ret ptr %arrayidx
}

; Function Attrs: mustprogress uwtable
define noundef i32 @_ZNK6icu_7520StandardPluralRanges7resolveENS_14StandardPlural4FormES2_(ptr noundef nonnull align 8 dereferenceable(60) %this, i32 noundef %first, i32 noundef %second) #1 align 2 {
entry:
  %retval = alloca i32, align 4
  %this.addr = alloca ptr, align 8
  %first.addr = alloca i32, align 4
  %second.addr = alloca i32, align 4
  %i = alloca i32, align 4
  %triple = alloca ptr, align 8
  store ptr %this, ptr %this.addr, align 8
  store i32 %first, ptr %first.addr, align 4
  store i32 %second, ptr %second.addr, align 4
  %this1 = load ptr, ptr %this.addr, align 8
  store i32 0, ptr %i, align 4
  br label %for.cond

for.cond:                                         ; preds = %for.inc, %entry
  %0 = load i32, ptr %i, align 4
  %fTriplesLen = getelementptr inbounds %"class.icu_75::StandardPluralRanges", ptr %this1, i32 0, i32 1
  %1 = load i32, ptr %fTriplesLen, align 8
  %cmp = icmp slt i32 %0, %1
  br i1 %cmp, label %for.body, label %for.end

for.body:                                         ; preds = %for.cond
  %fTriples = getelementptr inbounds %"class.icu_75::StandardPluralRanges", ptr %this1, i32 0, i32 0
  %2 = load i32, ptr %i, align 4
  %conv = sext i32 %2 to i64
  %call = call noundef nonnull align 4 dereferenceable(12) ptr @_ZNK6icu_7515MaybeStackArrayINS_20StandardPluralRanges25StandardPluralRangeTripleELi3EEixEl(ptr noundef nonnull align 8 dereferenceable(52) %fTriples, i64 noundef %conv)
  store ptr %call, ptr %triple, align 8
  %3 = load ptr, ptr %triple, align 8
  %first2 = getelementptr inbounds %"struct.icu_75::StandardPluralRanges::StandardPluralRangeTriple", ptr %3, i32 0, i32 0
  %4 = load i32, ptr %first2, align 4
  %5 = load i32, ptr %first.addr, align 4
  %cmp3 = icmp eq i32 %4, %5
  br i1 %cmp3, label %land.lhs.true, label %if.end

land.lhs.true:                                    ; preds = %for.body
  %6 = load ptr, ptr %triple, align 8
  %second4 = getelementptr inbounds %"struct.icu_75::StandardPluralRanges::StandardPluralRangeTriple", ptr %6, i32 0, i32 1
  %7 = load i32, ptr %second4, align 4
  %8 = load i32, ptr %second.addr, align 4
  %cmp5 = icmp eq i32 %7, %8
  br i1 %cmp5, label %if.then, label %if.end

if.then:                                          ; preds = %land.lhs.true
  %9 = load ptr, ptr %triple, align 8
  %result = getelementptr inbounds %"struct.icu_75::StandardPluralRanges::StandardPluralRangeTriple", ptr %9, i32 0, i32 2
  %10 = load i32, ptr %result, align 4
  store i32 %10, ptr %retval, align 4
  br label %return

if.end:                                           ; preds = %land.lhs.true, %for.body
  br label %for.inc

for.inc:                                          ; preds = %if.end
  %11 = load i32, ptr %i, align 4
  %inc = add nsw i32 %11, 1
  store i32 %inc, ptr %i, align 4
  br label %for.cond, !llvm.loop !4

for.end:                                          ; preds = %for.cond
  store i32 5, ptr %retval, align 4
  br label %return

return:                                           ; preds = %for.end, %if.then
  %12 = load i32, ptr %retval, align 4
  ret i32 %12
}