; Function Attrs: mustprogress nofree norecurse nosync nounwind willreturn memory(read, inaccessiblemem: none) uwtable
define noundef i32 @_ZNK6icu_7520StandardPluralRanges7resolveENS_14StandardPlural4FormES2_(ptr nocapture noundef nonnull readonly align 8 dereferenceable(60) %this, i32 noundef %first, i32 noundef %second) local_unnamed_addr #8 align 2 {
entry:
  %fTriplesLen = getelementptr inbounds i8, ptr %this, i64 56
  %0 = load i32, ptr %fTriplesLen, align 8
  %cmp6 = icmp sgt i32 %0, 0
  br i1 %cmp6, label %for.body.lr.ph, label %return

for.body.lr.ph:                                   ; preds = %entry
  %1 = load ptr, ptr %this, align 8
  %wide.trip.count = zext nneg i32 %0 to i64
  br label %for.body

for.cond:                                         ; preds = %for.body
  %indvars.iv.next = add nuw nsw i64 %indvars.iv, 1
  %exitcond.not = icmp eq i64 %indvars.iv.next, %wide.trip.count
  br i1 %exitcond.not, label %return, label %for.body, !llvm.loop !4

for.body:                                         ; preds = %for.body.lr.ph, %for.cond
  %indvars.iv = phi i64 [ 0, %for.body.lr.ph ], [ %indvars.iv.next, %for.cond ]
  %arrayidx.i = getelementptr inbounds %"struct.icu_75::StandardPluralRanges::StandardPluralRangeTriple", ptr %1, i64 %indvars.iv
  %2 = load i32, ptr %arrayidx.i, align 4
  %cmp3 = icmp eq i32 %2, %first
  %second4 = getelementptr inbounds i8, ptr %arrayidx.i, i64 4
  %3 = load i32, ptr %second4, align 4
  %cmp5 = icmp eq i32 %3, %second
  %or.cond = select i1 %cmp3, i1 %cmp5, i1 false
  br i1 %or.cond, label %if.then, label %for.cond

if.then:                                          ; preds = %for.body
  %result = getelementptr inbounds i8, ptr %arrayidx.i, i64 8
  %4 = load i32, ptr %result, align 4
  br label %return

return:                                           ; preds = %for.cond, %entry, %if.then
  %retval.0 = phi i32 [ %4, %if.then ], [ 5, %entry ], [ 5, %for.cond ]
  ret i32 %retval.0
}